; ModuleID = '21/2023.c'
source_filename = "21/2023.c"
target datalayout = "e-m:e-p270:32:32-p271:32:32-p272:64:64-i64:64-f80:128-n8:16:32:64-S128"
target triple = "x86_64-pc-linux-gnu"

@.str = private unnamed_addr constant [3 x i8] c"%d\00", align 1
@.str.1 = private unnamed_addr constant [4 x i8] c"%u \00", align 1
@.str.2 = private unnamed_addr constant [3 x i8] c"%u\00", align 1
@.str.3 = private unnamed_addr constant [6 x i8] c"%d,%d\00", align 1

; Function Attrs: noinline nounwind uwtable
define dso_local void @main() #0 {
  %1 = alloca i32, align 4
  %2 = alloca i32, align 4
  %3 = alloca i32, align 4
  %4 = alloca float, align 4
  %5 = alloca float, align 4
  %6 = alloca [100 x float], align 16
  %7 = alloca [100 x i32], align 16
  %8 = alloca i32, align 4
  %9 = alloca i32, align 4
  %10 = call i32 (i8*, ...) @__isoc99_scanf(i8* getelementptr inbounds ([3 x i8], [3 x i8]* @.str, i64 0, i64 0), i32* %1)
  store i32 0, i32* %2, align 4
  br label %11

11:                                               ; preds = %21, %0
  %12 = load i32, i32* %2, align 4
  %13 = load i32, i32* %1, align 4
  %14 = sub nsw i32 %13, 1
  %15 = icmp slt i32 %12, %14
  br i1 %15, label %16, label %24

16:                                               ; preds = %11
  %17 = load i32, i32* %2, align 4
  %18 = sext i32 %17 to i64
  %19 = getelementptr inbounds [100 x i32], [100 x i32]* %7, i64 0, i64 %18
  %20 = call i32 (i8*, ...) @__isoc99_scanf(i8* getelementptr inbounds ([4 x i8], [4 x i8]* @.str.1, i64 0, i64 0), i32* %19)
  br label %21

21:                                               ; preds = %16
  %22 = load i32, i32* %2, align 4
  %23 = add nsw i32 %22, 1
  store i32 %23, i32* %2, align 4
  br label %11

24:                                               ; preds = %11
  %25 = load i32, i32* %1, align 4
  %26 = sub nsw i32 %25, 1
  %27 = sext i32 %26 to i64
  %28 = getelementptr inbounds [100 x i32], [100 x i32]* %7, i64 0, i64 %27
  %29 = call i32 (i8*, ...) @__isoc99_scanf(i8* getelementptr inbounds ([3 x i8], [3 x i8]* @.str.2, i64 0, i64 0), i32* %28)
  store float 0.000000e+00, float* %5, align 4
  store i32 0, i32* %2, align 4
  br label %30

30:                                               ; preds = %42, %24
  %31 = load i32, i32* %2, align 4
  %32 = load i32, i32* %1, align 4
  %33 = icmp slt i32 %31, %32
  br i1 %33, label %34, label %45

34:                                               ; preds = %30
  %35 = load float, float* %5, align 4
  %36 = load i32, i32* %2, align 4
  %37 = sext i32 %36 to i64
  %38 = getelementptr inbounds [100 x i32], [100 x i32]* %7, i64 0, i64 %37
  %39 = load i32, i32* %38, align 4
  %40 = uitofp i32 %39 to float
  %41 = fadd float %35, %40
  store float %41, float* %5, align 4
  br label %42

42:                                               ; preds = %34
  %43 = load i32, i32* %2, align 4
  %44 = add nsw i32 %43, 1
  store i32 %44, i32* %2, align 4
  br label %30

45:                                               ; preds = %30
  %46 = load float, float* %5, align 4
  %47 = load i32, i32* %1, align 4
  %48 = sitofp i32 %47 to float
  %49 = fdiv float %46, %48
  store float %49, float* %4, align 4
  %50 = getelementptr inbounds [100 x i32], [100 x i32]* %7, i64 0, i64 0
  %51 = load i32, i32* %50, align 16
  store i32 %51, i32* %8, align 4
  %52 = getelementptr inbounds [100 x i32], [100 x i32]* %7, i64 0, i64 0
  %53 = load i32, i32* %52, align 16
  store i32 %53, i32* %9, align 4
  store i32 0, i32* %2, align 4
  br label %54

54:                                               ; preds = %83, %45
  %55 = load i32, i32* %2, align 4
  %56 = load i32, i32* %1, align 4
  %57 = icmp slt i32 %55, %56
  br i1 %57, label %58, label %86

58:                                               ; preds = %54
  %59 = load i32, i32* %2, align 4
  %60 = sext i32 %59 to i64
  %61 = getelementptr inbounds [100 x i32], [100 x i32]* %7, i64 0, i64 %60
  %62 = load i32, i32* %61, align 4
  %63 = load i32, i32* %8, align 4
  %64 = icmp ugt i32 %62, %63
  br i1 %64, label %65, label %70

65:                                               ; preds = %58
  %66 = load i32, i32* %2, align 4
  %67 = sext i32 %66 to i64
  %68 = getelementptr inbounds [100 x i32], [100 x i32]* %7, i64 0, i64 %67
  %69 = load i32, i32* %68, align 4
  store i32 %69, i32* %8, align 4
  br label %70

70:                                               ; preds = %65, %58
  %71 = load i32, i32* %2, align 4
  %72 = sext i32 %71 to i64
  %73 = getelementptr inbounds [100 x i32], [100 x i32]* %7, i64 0, i64 %72
  %74 = load i32, i32* %73, align 4
  %75 = load i32, i32* %9, align 4
  %76 = icmp ult i32 %74, %75
  br i1 %76, label %77, label %82

77:                                               ; preds = %70
  %78 = load i32, i32* %2, align 4
  %79 = sext i32 %78 to i64
  %80 = getelementptr inbounds [100 x i32], [100 x i32]* %7, i64 0, i64 %79
  %81 = load i32, i32* %80, align 4
  store i32 %81, i32* %9, align 4
  br label %82

82:                                               ; preds = %77, %70
  br label %83

83:                                               ; preds = %82
  %84 = load i32, i32* %2, align 4
  %85 = add nsw i32 %84, 1
  store i32 %85, i32* %2, align 4
  br label %54

86:                                               ; preds = %54
  %87 = load i32, i32* %8, align 4
  %88 = uitofp i32 %87 to float
  %89 = load float, float* %4, align 4
  %90 = fsub float %88, %89
  %91 = load float, float* %4, align 4
  %92 = load i32, i32* %9, align 4
  %93 = uitofp i32 %92 to float
  %94 = fsub float %91, %93
  %95 = fcmp oeq float %90, %94
  br i1 %95, label %96, label %100

96:                                               ; preds = %86
  %97 = load i32, i32* %9, align 4
  %98 = load i32, i32* %8, align 4
  %99 = call i32 (i8*, ...) @printf(i8* getelementptr inbounds ([6 x i8], [6 x i8]* @.str.3, i64 0, i64 0), i32 %97, i32 %98)
  br label %117

100:                                              ; preds = %86
  %101 = load i32, i32* %8, align 4
  %102 = uitofp i32 %101 to float
  %103 = load float, float* %4, align 4
  %104 = fsub float %102, %103
  %105 = load float, float* %4, align 4
  %106 = load i32, i32* %9, align 4
  %107 = uitofp i32 %106 to float
  %108 = fsub float %105, %107
  %109 = fcmp ogt float %104, %108
  br i1 %109, label %110, label %113

110:                                              ; preds = %100
  %111 = load i32, i32* %8, align 4
  %112 = call i32 (i8*, ...) @printf(i8* getelementptr inbounds ([3 x i8], [3 x i8]* @.str, i64 0, i64 0), i32 %111)
  br label %116

113:                                              ; preds = %100
  %114 = load i32, i32* %9, align 4
  %115 = call i32 (i8*, ...) @printf(i8* getelementptr inbounds ([3 x i8], [3 x i8]* @.str, i64 0, i64 0), i32 %114)
  br label %116

116:                                              ; preds = %113, %110
  br label %117

117:                                              ; preds = %116, %96
  ret void
}

declare dso_local i32 @__isoc99_scanf(i8*, ...) #1

declare dso_local i32 @printf(i8*, ...) #1


!llvm.module.flags = !{!0}
!llvm.ident = !{!1}

!0 = !{i32 1, !"wchar_size", i32 4}
!1 = !{!"clang version 10.0.0-4ubuntu1 "}
